target datalayout = "e-m:e-p270:32:32-p271:32:32-p272:64:64-i64:64-i128:128-f80:128-n8:16:32:64-S128"
target triple = "x86_64-pc-linux-gnu"

%struct.mbedtls_md_info_t = type { ptr, i32, i8, i8 }

; Function Attrs: mustprogress uwtable
define hidden i32 @mbedtls_md(ptr noundef %0, ptr noundef %1, i64 noundef %2, ptr noundef %3) #1 {
  %5 = alloca i32, align 4
  %6 = alloca ptr, align 8
  %7 = alloca ptr, align 8
  %8 = alloca i64, align 8
  %9 = alloca ptr, align 8
  store ptr %0, ptr %6, align 8, !tbaa !20
  store ptr %1, ptr %7, align 8, !tbaa !3
  store i64 %2, ptr %8, align 8, !tbaa !23
  store ptr %3, ptr %9, align 8, !tbaa !3
  %10 = load ptr, ptr %6, align 8, !tbaa !20
  %11 = icmp eq ptr %10, null
  br i1 %11, label %12, label %13

12:                                               ; preds = %4
  store i32 -20736, ptr %5, align 4
  br label %33

13:                                               ; preds = %4
  %14 = load ptr, ptr %6, align 8, !tbaa !20
  %15 = getelementptr inbounds nuw %struct.mbedtls_md_info_t, ptr %14, i32 0, i32 1
  %16 = load i32, ptr %15, align 8, !tbaa !16
  switch i32 %16, label %32 [
    i32 2, label %17
    i32 3, label %22
    i32 4, label %27
  ]

17:                                               ; preds = %13
  %18 = load ptr, ptr %7, align 8, !tbaa !3
  %19 = load i64, ptr %8, align 8, !tbaa !23
  %20 = load ptr, ptr %9, align 8, !tbaa !3
  %21 = call i32 @mbedtls_sha1(ptr noundef %18, i64 noundef %19, ptr noundef %20)
  store i32 %21, ptr %5, align 4
  br label %33

22:                                               ; preds = %13
  %23 = load ptr, ptr %7, align 8, !tbaa !3
  %24 = load i64, ptr %8, align 8, !tbaa !23
  %25 = load ptr, ptr %9, align 8, !tbaa !3
  %26 = call i32 @mbedtls_sha256(ptr noundef %23, i64 noundef %24, ptr noundef %25, i32 noundef 1)
  store i32 %26, ptr %5, align 4
  br label %33

27:                                               ; preds = %13
  %28 = load ptr, ptr %7, align 8, !tbaa !3
  %29 = load i64, ptr %8, align 8, !tbaa !23
  %30 = load ptr, ptr %9, align 8, !tbaa !3
  %31 = call i32 @mbedtls_sha256(ptr noundef %28, i64 noundef %29, ptr noundef %30, i32 noundef 0)
  store i32 %31, ptr %5, align 4
  br label %33

32:                                               ; preds = %13
  store i32 -20736, ptr %5, align 4
  br label %33

33:                                               ; preds = %32, %27, %22, %17, %12
  %34 = load i32, ptr %5, align 4
  ret i32 %34
}