; Function Attrs: mustprogress uwtable
define hidden i32 @mbedtls_md(ptr noundef readonly captures(address_is_null) %0, ptr noundef %1, i64 noundef %2, ptr noundef %3) local_unnamed_addr #5 {
  %5 = icmp eq ptr %0, null
  br i1 %5, label %15, label %6

6:                                                ; preds = %4
  %7 = getelementptr inbounds nuw i8, ptr %0, i64 8
  %8 = load i32, ptr %7, align 8, !tbaa !10
  switch i32 %8, label %15 [
    i32 2, label %9
    i32 3, label %11
    i32 4, label %13
  ]

9:                                                ; preds = %6
  %10 = tail call i32 @mbedtls_sha1(ptr noundef %1, i64 noundef %2, ptr noundef %3)
  br label %15

11:                                               ; preds = %6
  %12 = tail call i32 @mbedtls_sha256(ptr noundef %1, i64 noundef %2, ptr noundef %3, i32 noundef 1)
  br label %15

13:                                               ; preds = %6
  %14 = tail call i32 @mbedtls_sha256(ptr noundef %1, i64 noundef %2, ptr noundef %3, i32 noundef 0)
  br label %15

15:                                               ; preds = %6, %4, %13, %11, %9
  %.0 = phi i32 [ %14, %13 ], [ %12, %11 ], [ %10, %9 ], [ -20736, %4 ], [ -20736, %6 ]
  ret i32 %.0
}